; Function Attrs: mustprogress nofree norecurse nosync nounwind willreturn memory(read, inaccessiblemem: none) uwtable
define hidden noundef i32 @_ZNK7testing8TestCase30reportable_disabled_test_countEv(ptr noundef nonnull readonly align 8 captures(none) dereferenceable(200) %0) local_unnamed_addr #11 align 2 {
  %2 = getelementptr inbounds nuw i8, ptr %0, i64 48
  %3 = load ptr, ptr %2, align 8
  %4 = getelementptr inbounds nuw i8, ptr %0, i64 56
  %5 = load ptr, ptr %4, align 8
  %.not7.i = icmp eq ptr %3, %5
  br i1 %.not7.i, label %_ZN7testing8internal7CountIfISt6vectorIPNS_8TestInfoESaIS4_EEPFbPKS3_EEEiRKT_T0_.exit, label %.lr.ph.i

.lr.ph.i:                                         ; preds = %1, %_ZN7testing8TestCase22TestReportableDisabledEPKNS_8TestInfoE.exit
  %.09.i = phi i32 [ %spec.select.i, %_ZN7testing8TestCase22TestReportableDisabledEPKNS_8TestInfoE.exit ], [ 0, %1 ]
  %.sroa.04.08.i = phi ptr [ %15, %_ZN7testing8TestCase22TestReportableDisabledEPKNS_8TestInfoE.exit ], [ %3, %1 ]
  %6 = load ptr, ptr %.sroa.04.08.i, align 8
  %7 = getelementptr inbounds nuw i8, ptr %6, i64 90
  %8 = load i8, ptr %7, align 2, !range !8, !noundef !9
  %9 = trunc nuw i8 %8 to i1
  br i1 %9, label %10, label %_ZN7testing8TestCase22TestReportableDisabledEPKNS_8TestInfoE.exit

10:                                               ; preds = %.lr.ph.i
  %11 = getelementptr inbounds nuw i8, ptr %6, i64 89
  %12 = load i8, ptr %11, align 1, !range !8, !noundef !9
  %13 = zext nneg i8 %12 to i32
  br label %_ZN7testing8TestCase22TestReportableDisabledEPKNS_8TestInfoE.exit

_ZN7testing8TestCase22TestReportableDisabledEPKNS_8TestInfoE.exit: ; preds = %.lr.ph.i, %10
  %14 = phi i32 [ 0, %.lr.ph.i ], [ %13, %10 ]
  %spec.select.i = add nuw nsw i32 %14, %.09.i
  %15 = getelementptr inbounds nuw i8, ptr %.sroa.04.08.i, i64 8
  %.not.i = icmp eq ptr %15, %5
  br i1 %.not.i, label %_ZN7testing8internal7CountIfISt6vectorIPNS_8TestInfoESaIS4_EEPFbPKS3_EEEiRKT_T0_.exit, label %.lr.ph.i, !llvm.loop !50

_ZN7testing8internal7CountIfISt6vectorIPNS_8TestInfoESaIS4_EEPFbPKS3_EEEiRKT_T0_.exit: ; preds = %_ZN7testing8TestCase22TestReportableDisabledEPKNS_8TestInfoE.exit, %1
  %.0.lcssa.i = phi i32 [ 0, %1 ], [ %spec.select.i, %_ZN7testing8TestCase22TestReportableDisabledEPKNS_8TestInfoE.exit ]
  ret i32 %.0.lcssa.i
}